target datalayout = "e-m:e-p270:32:32-p271:32:32-p272:64:64-i64:64-i128:128-f80:128-n8:16:32:64-S128"
target triple = "x86_64-pc-linux-gnu"

%struct.Timestamp = type { i64, %struct.AVRational }
%struct.AVRational = type { i32, i32 }
%struct.Scheduler = type { ptr, ptr, i32, ptr, i32, i32, %union.pthread_mutex_t, i32, i32, %union.pthread_mutex_t, %union.pthread_cond_t, ptr, i32, ptr, i32, ptr, i32, ptr, i32, ptr, i32, i32, i32, %union.pthread_mutex_t, i64 }
%union.pthread_cond_t = type { %struct.__pthread_cond_s }
%struct.__pthread_cond_s = type { %union.__atomic_wide_counter, %union.__atomic_wide_counter, [2 x i32], [2 x i32], i32, i32, [2 x i32] }
%union.__atomic_wide_counter = type { i64 }
%union.pthread_mutex_t = type { %struct.__pthread_mutex_s }
%struct.__pthread_mutex_s = type { i32, i32, i32, i32, i32, i16, i16, %struct.__pthread_internal_list }
%struct.__pthread_internal_list = type { ptr, ptr }
%struct.SchTask = type { ptr, %struct.SchedulerNode, ptr, ptr, i64, i32 }
%struct.SchedulerNode = type { i32, i32, i32 }
%struct.SchDec = type { ptr, %struct.SchedulerNode, ptr, i32, %struct.SchTask, ptr, ptr, i32, ptr }
%struct.AVPacket = type { ptr, i64, i64, ptr, i32, i32, i32, ptr, i32, i64, i64, ptr, ptr, %struct.AVRational }

@.str = private unnamed_addr constant [30 x i8] c"Assertion %s failed at %s:%d\0A\00", align 1
@.str.2 = private unnamed_addr constant [23 x i8] c"fftools/ffmpeg_sched.c\00", align 1
@.str.4 = private unnamed_addr constant [22 x i8] c"dec_idx < sch->nb_dec\00", align 1
@.str.26 = private unnamed_addr constant [11 x i8] c"dummy <= 0\00", align 1

; Function Attrs: nounwind uwtable
define i32 @sch_dec_receive(ptr noundef %0, i32 noundef %1, ptr noundef %2) #0 {
  %4 = alloca i32, align 4
  %5 = alloca ptr, align 8
  %6 = alloca i32, align 4
  %7 = alloca ptr, align 8
  %8 = alloca ptr, align 8
  %9 = alloca i32, align 4
  %10 = alloca i32, align 4
  %11 = alloca %struct.Timestamp, align 8
  %12 = alloca i32, align 4
  store ptr %0, ptr %5, align 8, !tbaa !10
  store i32 %1, ptr %6, align 4, !tbaa !12
  store ptr %2, ptr %7, align 8, !tbaa !208
  call void @llvm.lifetime.start.p0(i64 8, ptr %8) #9
  call void @llvm.lifetime.start.p0(i64 4, ptr %9) #9
  call void @llvm.lifetime.start.p0(i64 4, ptr %10) #9
  br label %13

13:                                               ; preds = %3
  %14 = load i32, ptr %6, align 4, !tbaa !12
  %15 = load ptr, ptr %5, align 8, !tbaa !10
  %16 = getelementptr inbounds nuw %struct.Scheduler, ptr %15, i32 0, i32 12
  %17 = load i32, ptr %16, align 8, !tbaa !56
  %18 = icmp ult i32 %14, %17
  br i1 %18, label %20, label %19

19:                                               ; preds = %13
  call void (ptr, i32, ptr, ...) @av_log(ptr noundef null, i32 noundef 0, ptr noundef @.str, ptr noundef @.str.4, ptr noundef @.str.2, i32 noundef 2162)
  call void @abort() #10
  unreachable

20:                                               ; preds = %13
  br label %21

21:                                               ; preds = %20
  br label %22

22:                                               ; preds = %21
  %23 = load ptr, ptr %5, align 8, !tbaa !10
  %24 = getelementptr inbounds nuw %struct.Scheduler, ptr %23, i32 0, i32 11
  %25 = load ptr, ptr %24, align 8, !tbaa !57
  %26 = load i32, ptr %6, align 4, !tbaa !12
  %27 = zext i32 %26 to i64
  %28 = getelementptr inbounds nuw %struct.SchDec, ptr %25, i64 %27
  store ptr %28, ptr %8, align 8, !tbaa !58
  %29 = load ptr, ptr %8, align 8, !tbaa !58
  %30 = getelementptr inbounds nuw %struct.SchDec, ptr %29, i32 0, i32 7
  %31 = load i32, ptr %30, align 8, !tbaa !231
  %32 = icmp ne i32 %31, 0
  br i1 %32, label %33, label %55

33:                                               ; preds = %22
  call void @llvm.lifetime.start.p0(i64 16, ptr %11) #9
  %34 = getelementptr inbounds nuw %struct.Timestamp, ptr %11, i32 0, i32 0
  %35 = load ptr, ptr %7, align 8, !tbaa !208
  %36 = getelementptr inbounds nuw %struct.AVPacket, ptr %35, i32 0, i32 1
  %37 = load i64, ptr %36, align 8, !tbaa !226
  store i64 %37, ptr %34, align 8, !tbaa !221
  %38 = getelementptr inbounds nuw %struct.Timestamp, ptr %11, i32 0, i32 1
  %39 = load ptr, ptr %7, align 8, !tbaa !208
  %40 = getelementptr inbounds nuw %struct.AVPacket, ptr %39, i32 0, i32 13
  call void @llvm.memcpy.p0.p0.i64(ptr align 8 %38, ptr align 8 %40, i64 8, i1 false), !tbaa.struct !227
  %41 = load ptr, ptr %8, align 8, !tbaa !58
  %42 = getelementptr inbounds nuw %struct.SchDec, ptr %41, i32 0, i32 6
  %43 = load ptr, ptr %42, align 8, !tbaa !220
  %44 = call i32 @av_thread_message_queue_send(ptr noundef %43, ptr noundef %11, i32 noundef 0)
  store i32 %44, ptr %9, align 4, !tbaa !12
  %45 = load i32, ptr %9, align 4, !tbaa !12
  %46 = icmp slt i32 %45, 0
  br i1 %46, label %47, label %49

47:                                               ; preds = %33
  %48 = load i32, ptr %9, align 4, !tbaa !12
  store i32 %48, ptr %4, align 4
  store i32 1, ptr %12, align 4
  br label %52

49:                                               ; preds = %33
  %50 = load ptr, ptr %8, align 8, !tbaa !58
  %51 = getelementptr inbounds nuw %struct.SchDec, ptr %50, i32 0, i32 7
  store i32 0, ptr %51, align 8, !tbaa !231
  store i32 0, ptr %12, align 4
  br label %52

52:                                               ; preds = %49, %47
  call void @llvm.lifetime.end.p0(i64 16, ptr %11) #9
  %53 = load i32, ptr %12, align 4
  switch i32 %53, label %90 [
    i32 0, label %54
  ]

54:                                               ; preds = %52
  br label %55

55:                                               ; preds = %54, %22
  %56 = load ptr, ptr %8, align 8, !tbaa !58
  %57 = getelementptr inbounds nuw %struct.SchDec, ptr %56, i32 0, i32 5
  %58 = load ptr, ptr %57, align 8, !tbaa !219
  %59 = load ptr, ptr %7, align 8, !tbaa !208
  %60 = call i32 @tq_receive(ptr noundef %58, ptr noundef %10, ptr noundef %59)
  store i32 %60, ptr %9, align 4, !tbaa !12
  br label %61

61:                                               ; preds = %55
  %62 = load i32, ptr %10, align 4, !tbaa !12
  %63 = icmp sle i32 %62, 0
  br i1 %63, label %65, label %64

64:                                               ; preds = %61
  call void (ptr, i32, ptr, ...) @av_log(ptr noundef null, i32 noundef 0, ptr noundef @.str, ptr noundef @.str.26, ptr noundef @.str.2, i32 noundef 2176)
  call void @abort() #10
  unreachable

65:                                               ; preds = %61
  br label %66

66:                                               ; preds = %65
  br label %67

67:                                               ; preds = %66
  %68 = load i32, ptr %9, align 4, !tbaa !12
  %69 = icmp sge i32 %68, 0
  br i1 %69, label %70, label %88

70:                                               ; preds = %67
  %71 = load ptr, ptr %7, align 8, !tbaa !208
  %72 = getelementptr inbounds nuw %struct.AVPacket, ptr %71, i32 0, i32 3
  %73 = load ptr, ptr %72, align 8, !tbaa !216
  %74 = icmp ne ptr %73, null
  br i1 %74, label %88, label %75

75:                                               ; preds = %70
  %76 = load ptr, ptr %7, align 8, !tbaa !208
  %77 = getelementptr inbounds nuw %struct.AVPacket, ptr %76, i32 0, i32 8
  %78 = load i32, ptr %77, align 8, !tbaa !217
  %79 = icmp ne i32 %78, 0
  br i1 %79, label %88, label %80

80:                                               ; preds = %75
  %81 = load ptr, ptr %8, align 8, !tbaa !58
  %82 = getelementptr inbounds nuw %struct.SchDec, ptr %81, i32 0, i32 6
  %83 = load ptr, ptr %82, align 8, !tbaa !220
  %84 = icmp ne ptr %83, null
  br i1 %84, label %85, label %88

85:                                               ; preds = %80
  %86 = load ptr, ptr %8, align 8, !tbaa !58
  %87 = getelementptr inbounds nuw %struct.SchDec, ptr %86, i32 0, i32 7
  store i32 1, ptr %87, align 8, !tbaa !231
  br label %88

88:                                               ; preds = %85, %80, %75, %70, %67
  %89 = load i32, ptr %9, align 4, !tbaa !12
  store i32 %89, ptr %4, align 4
  store i32 1, ptr %12, align 4
  br label %90

90:                                               ; preds = %88, %52
  call void @llvm.lifetime.end.p0(i64 4, ptr %10) #9
  call void @llvm.lifetime.end.p0(i64 4, ptr %9) #9
  call void @llvm.lifetime.end.p0(i64 8, ptr %8) #9
  %91 = load i32, ptr %4, align 4
  ret i32 %91
}