; Function Attrs: nounwind uwtable
define i32 @sch_dec_receive(ptr noundef readonly captures(none) %0, i32 noundef %1, ptr noundef %2) local_unnamed_addr #0 {
  %4 = alloca i32, align 4
  %5 = alloca %struct.Timestamp, align 8
  call void @llvm.lifetime.start.p0(i64 4, ptr nonnull %4) #9
  %6 = getelementptr inbounds nuw i8, ptr %0, i64 184
  %7 = load i32, ptr %6, align 8, !tbaa !34
  %8 = icmp ult i32 %1, %7
  br i1 %8, label %10, label %9

9:                                                ; preds = %3
  tail call void (ptr, i32, ptr, ...) @av_log(ptr noundef null, i32 noundef 0, ptr noundef nonnull @.str, ptr noundef nonnull @.str.4, ptr noundef nonnull @.str.2, i32 noundef 2162) #9
  tail call void @abort() #10
  unreachable

10:                                               ; preds = %3
  %11 = getelementptr inbounds nuw i8, ptr %0, i64 176
  %12 = load ptr, ptr %11, align 8, !tbaa !50
  %13 = zext i32 %1 to i64
  %14 = getelementptr inbounds nuw %struct.SchDec, ptr %12, i64 %13
  %15 = getelementptr inbounds nuw i8, ptr %14, i64 112
  %16 = load i32, ptr %15, align 8, !tbaa !212
  %.not = icmp eq i32 %16, 0
  br i1 %.not, label %28, label %17

17:                                               ; preds = %10
  call void @llvm.lifetime.start.p0(i64 16, ptr nonnull %5) #9
  %18 = getelementptr inbounds nuw i8, ptr %2, i64 8
  %19 = load i64, ptr %18, align 8, !tbaa !208
  store i64 %19, ptr %5, align 8, !tbaa !204
  %20 = getelementptr inbounds nuw i8, ptr %5, i64 8
  %21 = getelementptr inbounds nuw i8, ptr %2, i64 96
  %22 = load i64, ptr %21, align 8
  store i64 %22, ptr %20, align 8
  %23 = getelementptr inbounds nuw i8, ptr %14, i64 104
  %24 = load ptr, ptr %23, align 8, !tbaa !203
  %25 = call i32 @av_thread_message_queue_send(ptr noundef %24, ptr noundef nonnull %5, i32 noundef 0) #9
  %26 = icmp sgt i32 %25, -1
  br i1 %26, label %27, label %.critedge

27:                                               ; preds = %17
  store i32 0, ptr %15, align 8, !tbaa !212
  call void @llvm.lifetime.end.p0(i64 16, ptr nonnull %5) #9
  br label %28

28:                                               ; preds = %27, %10
  %29 = getelementptr inbounds nuw i8, ptr %14, i64 96
  %30 = load ptr, ptr %29, align 8, !tbaa !202
  %31 = call i32 @tq_receive(ptr noundef %30, ptr noundef nonnull %4, ptr noundef %2) #9
  %32 = load i32, ptr %4, align 4, !tbaa !68
  %33 = icmp slt i32 %32, 1
  br i1 %33, label %35, label %34

34:                                               ; preds = %28
  call void (ptr, i32, ptr, ...) @av_log(ptr noundef null, i32 noundef 0, ptr noundef nonnull @.str, ptr noundef nonnull @.str.26, ptr noundef nonnull @.str.2, i32 noundef 2176) #9
  call void @abort() #10
  unreachable

35:                                               ; preds = %28
  %36 = icmp sgt i32 %31, -1
  br i1 %36, label %37, label %47

37:                                               ; preds = %35
  %38 = getelementptr inbounds nuw i8, ptr %2, i64 24
  %39 = load ptr, ptr %38, align 8, !tbaa !198
  %.not22 = icmp eq ptr %39, null
  br i1 %.not22, label %40, label %47

40:                                               ; preds = %37
  %41 = getelementptr inbounds nuw i8, ptr %2, i64 56
  %42 = load i32, ptr %41, align 8, !tbaa !199
  %.not23 = icmp eq i32 %42, 0
  br i1 %.not23, label %43, label %47

43:                                               ; preds = %40
  %44 = getelementptr inbounds nuw i8, ptr %14, i64 104
  %45 = load ptr, ptr %44, align 8, !tbaa !203
  %.not24 = icmp eq ptr %45, null
  br i1 %.not24, label %47, label %46

46:                                               ; preds = %43
  store i32 1, ptr %15, align 8, !tbaa !212
  br label %47

.critedge:                                        ; preds = %17
  call void @llvm.lifetime.end.p0(i64 16, ptr nonnull %5) #9
  br label %47

47:                                               ; preds = %35, %37, %40, %43, %46, %.critedge
  %.1 = phi i32 [ %25, %.critedge ], [ %31, %46 ], [ %31, %43 ], [ %31, %40 ], [ %31, %37 ], [ %31, %35 ]
  call void @llvm.lifetime.end.p0(i64 4, ptr nonnull %4) #9
  ret i32 %.1
}